; ModuleID = 'source-C-CXX/59/1480.c'
source_filename = "source-C-CXX/59/1480.c"
target datalayout = "e-m:e-p270:32:32-p271:32:32-p272:64:64-i64:64-f80:128-n8:16:32:64-S128"
target triple = "x86_64-pc-linux-gnu"

@.str = private unnamed_addr constant [3 x i8] c"%d\00", align 1
@.str.1 = private unnamed_addr constant [7 x i8] c"%d %d\0A\00", align 1
@.str.2 = private unnamed_addr constant [6 x i8] c"empty\00", align 1

; Function Attrs: nofree nounwind sspstrong uwtable
define dso_local i32 @main() local_unnamed_addr #0 {
  %1 = alloca i32, align 4
  %2 = bitcast i32* %1 to i8*
  call void @llvm.lifetime.start.p0i8(i64 4, i8* nonnull %2) #4
  %3 = call i32 (i8*, ...) @__isoc99_scanf(i8* getelementptr inbounds ([3 x i8], [3 x i8]* @.str, i64 0, i64 0), i32* nonnull %1)
  %4 = load i32, i32* %1, align 4, !tbaa !5
  %5 = icmp sgt i32 %4, 4
  br i1 %5, label %6, label %54

6:                                                ; preds = %0, %46
  %7 = phi i32 [ %47, %46 ], [ 0, %0 ]
  %8 = phi i32 [ %48, %46 ], [ 3, %0 ]
  %9 = sitofp i32 %8 to double
  %10 = call double @sqrt(double %9) #4
  %11 = fcmp ult double %10, 2.000000e+00
  br i1 %11, label %25, label %12

12:                                               ; preds = %6, %12
  %13 = phi i32 [ %18, %12 ], [ 0, %6 ]
  %14 = phi i32 [ %19, %12 ], [ 2, %6 ]
  %15 = urem i32 %8, %14
  %16 = icmp eq i32 %15, 0
  %17 = zext i1 %16 to i32
  %18 = add nuw nsw i32 %13, %17
  %19 = add nuw nsw i32 %14, 1
  %20 = sitofp i32 %19 to double
  %21 = call double @sqrt(double %9) #4
  %22 = fcmp ult double %21, %20
  br i1 %22, label %23, label %12, !llvm.loop !9

23:                                               ; preds = %12
  %24 = icmp eq i32 %18, 0
  br i1 %24, label %25, label %46

25:                                               ; preds = %6, %23
  %26 = add nuw nsw i32 %8, 2
  %27 = sitofp i32 %26 to double
  %28 = call double @sqrt(double %27) #4
  %29 = fcmp ult double %28, 2.000000e+00
  br i1 %29, label %43, label %30

30:                                               ; preds = %25, %30
  %31 = phi i32 [ %36, %30 ], [ 0, %25 ]
  %32 = phi i32 [ %37, %30 ], [ 2, %25 ]
  %33 = urem i32 %26, %32
  %34 = icmp eq i32 %33, 0
  %35 = zext i1 %34 to i32
  %36 = add nuw nsw i32 %31, %35
  %37 = add nuw nsw i32 %32, 1
  %38 = sitofp i32 %37 to double
  %39 = call double @sqrt(double %27) #4
  %40 = fcmp ult double %39, %38
  br i1 %40, label %41, label %30, !llvm.loop !9

41:                                               ; preds = %30
  %42 = icmp eq i32 %36, 0
  br i1 %42, label %43, label %46

43:                                               ; preds = %25, %41
  %44 = call i32 (i8*, ...) @printf(i8* nonnull dereferenceable(1) getelementptr inbounds ([7 x i8], [7 x i8]* @.str.1, i64 0, i64 0), i32 %8, i32 %26)
  %45 = add nsw i32 %7, 1
  br label %46

46:                                               ; preds = %23, %41, %43
  %47 = phi i32 [ %45, %43 ], [ %7, %41 ], [ %7, %23 ]
  %48 = add nuw nsw i32 %8, 1
  %49 = load i32, i32* %1, align 4, !tbaa !5
  %50 = add nsw i32 %49, -1
  %51 = icmp slt i32 %48, %50
  br i1 %51, label %6, label %52, !llvm.loop !11

52:                                               ; preds = %46
  %53 = icmp eq i32 %47, 0
  br i1 %53, label %54, label %56

54:                                               ; preds = %0, %52
  %55 = call i32 (i8*, ...) @printf(i8* nonnull dereferenceable(1) getelementptr inbounds ([6 x i8], [6 x i8]* @.str.2, i64 0, i64 0))
  br label %56

56:                                               ; preds = %54, %52
  call void @llvm.lifetime.end.p0i8(i64 4, i8* nonnull %2) #4
  ret i32 0
}

; Function Attrs: argmemonly mustprogress nofree nosync nounwind willreturn
declare void @llvm.lifetime.start.p0i8(i64 immarg, i8* nocapture) #1

; Function Attrs: nofree nounwind
declare noundef i32 @__isoc99_scanf(i8* nocapture noundef readonly, ...) local_unnamed_addr #2

; Function Attrs: nofree nounwind sspstrong uwtable
define dso_local i32 @sushu(i32 %0) local_unnamed_addr #0 {
  %2 = sitofp i32 %0 to double
  %3 = tail call double @sqrt(double %2) #4
  %4 = fcmp ult double %3, 2.000000e+00
  br i1 %4, label %19, label %5

5:                                                ; preds = %1, %5
  %6 = phi i32 [ %11, %5 ], [ 0, %1 ]
  %7 = phi i32 [ %12, %5 ], [ 2, %1 ]
  %8 = srem i32 %0, %7
  %9 = icmp eq i32 %8, 0
  %10 = zext i1 %9 to i32
  %11 = add nuw nsw i32 %6, %10
  %12 = add nuw nsw i32 %7, 1
  %13 = sitofp i32 %12 to double
  %14 = tail call double @sqrt(double %2) #4
  %15 = fcmp ult double %14, %13
  br i1 %15, label %16, label %5, !llvm.loop !9

16:                                               ; preds = %5
  %17 = icmp eq i32 %11, 0
  %18 = zext i1 %17 to i32
  br label %19

19:                                               ; preds = %16, %1
  %20 = phi i32 [ 1, %1 ], [ %18, %16 ]
  ret i32 %20
}

; Function Attrs: nofree nounwind
declare noundef i32 @printf(i8* nocapture noundef readonly, ...) local_unnamed_addr #2

; Function Attrs: argmemonly mustprogress nofree nosync nounwind willreturn
declare void @llvm.lifetime.end.p0i8(i64 immarg, i8* nocapture) #1

; Function Attrs: mustprogress nofree nounwind willreturn
declare double @sqrt(double) local_unnamed_addr #3


!llvm.module.flags = !{!0, !1, !2, !3}
!llvm.ident = !{!4}

!0 = !{i32 1, !"wchar_size", i32 4}
!1 = !{i32 7, !"PIC Level", i32 2}
!2 = !{i32 7, !"PIE Level", i32 2}
!3 = !{i32 7, !"uwtable", i32 1}
!4 = !{!"clang version 13.0.0"}
!5 = !{!6, !6, i64 0}
!6 = !{!"int", !7, i64 0}
!7 = !{!"omnipotent char", !8, i64 0}
!8 = !{!"Simple C/C++ TBAA"}
!9 = distinct !{!9, !10}
!10 = !{!"llvm.loop.mustprogress"}
!11 = distinct !{!11, !10}
